target datalayout = "e-m:e-p270:32:32-p271:32:32-p272:64:64-i64:64-i128:128-f80:128-n8:16:32:64-S128"
target triple = "x86_64-pc-linux-gnu"

%struct.except_stacknode = type { ptr, i32, %union.anon }
%union.anon = type { ptr }
%struct.except_cleanup = type { ptr, ptr }
%struct._packet_info = type { ptr, ptr, i32, i32, %struct.nstime_t, %struct.nstime_t, %struct.nstime_t, i8, ptr, ptr, ptr, ptr, %struct._address, %struct._address, %struct._address, %struct._address, %struct._address, %struct._address, i32, ptr, i8, [3 x i8], %struct.anon, i32, i32, i32, i32, ptr, i8, ptr, ptr, i16, i16, i32, i32, i16, i32, i32, ptr, ptr, ptr, i8, i8, i16, i16, i16, i32, i16, i16, ptr, ptr, ptr, ptr, ptr, i32, i32 }
%struct.nstime_t = type { i64, i32 }
%struct._address = type { i32, i32, ptr, ptr }
%struct.anon = type { i8, [3 x i8] }
%struct.wscbor_chunk_t = type { ptr, i32, i32, i32, ptr, ptr, i32, i8, i64 }
%struct.cose_header_context_t = type { ptr, ptr }

@ett_hdr_map = internal global i32 0, align 4

; Function Attrs: null_pointer_is_valid sspstrong uwtable
define internal void @dissect_header_map(ptr noundef %0, ptr noundef %1, ptr noundef %2, ptr noundef %3, ptr noundef %4, ptr noundef %5) #0 {
  %7 = alloca ptr, align 8
  %8 = alloca ptr, align 8
  %9 = alloca ptr, align 8
  %10 = alloca ptr, align 8
  %11 = alloca ptr, align 8
  %12 = alloca ptr, align 8
  %13 = alloca ptr, align 8
  %14 = alloca ptr, align 8
  %15 = alloca ptr, align 8
  %16 = alloca ptr, align 8
  %17 = alloca %struct.except_stacknode, align 8
  %18 = alloca %struct.except_cleanup, align 8
  %19 = alloca i32, align 4
  %20 = alloca i64, align 8
  %21 = alloca i32, align 4
  %22 = alloca ptr, align 8
  %23 = alloca i64, align 8
  store ptr %0, ptr %7, align 8
  store ptr %1, ptr %8, align 8
  store ptr %2, ptr %9, align 8
  store ptr %3, ptr %10, align 8
  store ptr %4, ptr %11, align 8
  store ptr %5, ptr %12, align 8
  call void @llvm.lifetime.start.p0(i64 8, ptr %13) #12
  %24 = load ptr, ptr %9, align 8
  %25 = getelementptr inbounds nuw %struct._packet_info, ptr %24, i32 0, i32 51
  %26 = load ptr, ptr %25, align 8
  %27 = load ptr, ptr %8, align 8
  %28 = load ptr, ptr %11, align 8
  %29 = call ptr @wscbor_chunk_read(ptr noundef %26, ptr noundef %27, ptr noundef %28)
  store ptr %29, ptr %13, align 8
  %30 = load ptr, ptr %13, align 8
  %31 = call zeroext i1 @wscbor_require_map(ptr noundef %30)
  call void @llvm.lifetime.start.p0(i64 8, ptr %14) #12
  %32 = load ptr, ptr %10, align 8
  %33 = call ptr @proto_tree_get_parent(ptr noundef %32)
  store ptr %33, ptr %14, align 8
  %34 = load ptr, ptr %9, align 8
  %35 = load ptr, ptr %14, align 8
  %36 = load ptr, ptr %13, align 8
  %37 = call i64 @wscbor_chunk_mark_errors(ptr noundef %34, ptr noundef %35, ptr noundef %36)
  %38 = load ptr, ptr %9, align 8
  %39 = getelementptr inbounds nuw %struct._packet_info, ptr %38, i32 0, i32 51
  %40 = load ptr, ptr %39, align 8
  %41 = load ptr, ptr %8, align 8
  %42 = load ptr, ptr %11, align 8
  %43 = load ptr, ptr %13, align 8
  %44 = call zeroext i1 @wscbor_skip_if_errors(ptr noundef %40, ptr noundef %41, ptr noundef %42, ptr noundef %43)
  br i1 %44, label %141, label %45

45:                                               ; preds = %6
  call void @llvm.lifetime.start.p0(i64 8, ptr %15) #12
  %46 = load ptr, ptr %14, align 8
  %47 = load i32, ptr @ett_hdr_map, align 4
  %48 = call ptr @proto_item_add_subtree(ptr noundef %46, i32 noundef %47)
  store ptr %48, ptr %15, align 8
  call void @llvm.lifetime.start.p0(i64 8, ptr %16) #12
  %49 = load ptr, ptr %9, align 8
  %50 = getelementptr inbounds nuw %struct._packet_info, ptr %49, i32 0, i32 51
  %51 = load ptr, ptr %50, align 8
  %52 = call noalias ptr @wmem_alloc0(ptr noundef %51, i64 noundef 16) #15
  store ptr %52, ptr %16, align 8
  call void @llvm.lifetime.start.p0(i64 24, ptr %17) #12
  call void @llvm.lifetime.start.p0(i64 16, ptr %18) #12
  %53 = load ptr, ptr %16, align 8
  call void @except_setup_clean(ptr noundef %17, ptr noundef %18, ptr noundef @cose_header_context_cleanup, ptr noundef %53)
  %54 = load ptr, ptr %12, align 8
  %55 = icmp ne ptr %54, null
  br i1 %55, label %56, label %109

56:                                               ; preds = %45
  call void @llvm.lifetime.start.p0(i64 4, ptr %19) #12
  %57 = load ptr, ptr %11, align 8
  %58 = load i32, ptr %57, align 4
  store i32 %58, ptr %19, align 4
  call void @llvm.lifetime.start.p0(i64 8, ptr %20) #12
  store i64 0, ptr %20, align 8
  br label %59

59:                                               ; preds = %104, %56
  %60 = load i64, ptr %20, align 8
  %61 = load ptr, ptr %13, align 8
  %62 = getelementptr inbounds nuw %struct.wscbor_chunk_t, ptr %61, i32 0, i32 8
  %63 = load i64, ptr %62, align 8
  %64 = icmp ult i64 %60, %63
  br i1 %64, label %66, label %65

65:                                               ; preds = %59
  store i32 2, ptr %21, align 4
  br label %107

66:                                               ; preds = %59
  call void @llvm.lifetime.start.p0(i64 8, ptr %22) #12
  %67 = load ptr, ptr %9, align 8
  %68 = getelementptr inbounds nuw %struct._packet_info, ptr %67, i32 0, i32 51
  %69 = load ptr, ptr %68, align 8
  %70 = load ptr, ptr %8, align 8
  %71 = call ptr @get_header_value(ptr noundef %69, ptr noundef %70, ptr noundef %19)
  store ptr %71, ptr %22, align 8
  %72 = load ptr, ptr %22, align 8
  %73 = icmp ne ptr %72, null
  br i1 %73, label %74, label %95

74:                                               ; preds = %66
  %75 = load ptr, ptr %22, align 8
  %76 = load ptr, ptr %12, align 8
  %77 = call i32 @g_variant_equal(ptr noundef %75, ptr noundef %76)
  %78 = icmp ne i32 %77, 0
  br i1 %78, label %79, label %87

79:                                               ; preds = %74
  %80 = load ptr, ptr %9, align 8
  %81 = getelementptr inbounds nuw %struct._packet_info, ptr %80, i32 0, i32 51
  %82 = load ptr, ptr %81, align 8
  %83 = load ptr, ptr %8, align 8
  %84 = call ptr @get_header_value(ptr noundef %82, ptr noundef %83, ptr noundef %19)
  %85 = load ptr, ptr %16, align 8
  %86 = getelementptr inbounds nuw %struct.cose_header_context_t, ptr %85, i32 0, i32 0
  store ptr %84, ptr %86, align 8
  br label %87

87:                                               ; preds = %79, %74
  %88 = load ptr, ptr %22, align 8
  call void @g_variant_unref(ptr noundef %88)
  %89 = load ptr, ptr %16, align 8
  %90 = getelementptr inbounds nuw %struct.cose_header_context_t, ptr %89, i32 0, i32 0
  %91 = load ptr, ptr %90, align 8
  %92 = icmp ne ptr %91, null
  br i1 %92, label %93, label %94

93:                                               ; preds = %87
  store i32 2, ptr %21, align 4
  br label %101

94:                                               ; preds = %87
  br label %95

95:                                               ; preds = %94, %66
  %96 = load ptr, ptr %9, align 8
  %97 = getelementptr inbounds nuw %struct._packet_info, ptr %96, i32 0, i32 51
  %98 = load ptr, ptr %97, align 8
  %99 = load ptr, ptr %8, align 8
  %100 = call zeroext i1 @wscbor_skip_next_item(ptr noundef %98, ptr noundef %99, ptr noundef %19)
  store i32 0, ptr %21, align 4
  br label %101

101:                                              ; preds = %95, %93
  call void @llvm.lifetime.end.p0(i64 8, ptr %22) #12
  %102 = load i32, ptr %21, align 4
  switch i32 %102, label %107 [
    i32 0, label %103
  ]

103:                                              ; preds = %101
  br label %104

104:                                              ; preds = %103
  %105 = load i64, ptr %20, align 8
  %106 = add i64 %105, 1
  store i64 %106, ptr %20, align 8
  br label %59, !llvm.loop !12

107:                                              ; preds = %101, %65
  call void @llvm.lifetime.end.p0(i64 8, ptr %20) #12
  br label %108

108:                                              ; preds = %107
  call void @llvm.lifetime.end.p0(i64 4, ptr %19) #12
  br label %109

109:                                              ; preds = %108, %45
  call void @llvm.lifetime.start.p0(i64 8, ptr %23) #12
  store i64 0, ptr %23, align 8
  br label %110

110:                                              ; preds = %127, %109
  %111 = load i64, ptr %23, align 8
  %112 = load ptr, ptr %13, align 8
  %113 = getelementptr inbounds nuw %struct.wscbor_chunk_t, ptr %112, i32 0, i32 8
  %114 = load i64, ptr %113, align 8
  %115 = icmp ult i64 %111, %114
  br i1 %115, label %117, label %116

116:                                              ; preds = %110
  store i32 5, ptr %21, align 4
  br label %130

117:                                              ; preds = %110
  %118 = load ptr, ptr %7, align 8
  %119 = load ptr, ptr %16, align 8
  %120 = load ptr, ptr %8, align 8
  %121 = load ptr, ptr %9, align 8
  %122 = load ptr, ptr %15, align 8
  %123 = load ptr, ptr %11, align 8
  %124 = call zeroext i1 @dissect_header_pair(ptr noundef %118, ptr noundef %119, ptr noundef %120, ptr noundef %121, ptr noundef %122, ptr noundef %123)
  br i1 %124, label %126, label %125

125:                                              ; preds = %117
  store i32 5, ptr %21, align 4
  br label %130

126:                                              ; preds = %117
  br label %127

127:                                              ; preds = %126
  %128 = load i64, ptr %23, align 8
  %129 = add i64 %128, 1
  store i64 %129, ptr %23, align 8
  br label %110, !llvm.loop !13

130:                                              ; preds = %125, %116
  call void @llvm.lifetime.end.p0(i64 8, ptr %23) #12
  br label %131

131:                                              ; preds = %130
  %132 = call ptr @except_pop()
  %133 = getelementptr inbounds nuw %struct.except_cleanup, ptr %18, i32 0, i32 0
  %134 = load ptr, ptr %133, align 8
  %135 = getelementptr inbounds nuw %struct.except_cleanup, ptr %18, i32 0, i32 1
  %136 = load ptr, ptr %135, align 8
  call void %134(ptr noundef %136)
  call void @llvm.lifetime.end.p0(i64 16, ptr %18) #12
  call void @llvm.lifetime.end.p0(i64 24, ptr %17) #12
  %137 = load ptr, ptr %9, align 8
  %138 = getelementptr inbounds nuw %struct._packet_info, ptr %137, i32 0, i32 51
  %139 = load ptr, ptr %138, align 8
  %140 = load ptr, ptr %16, align 8
  call void @wmem_free(ptr noundef %139, ptr noundef %140)
  call void @llvm.lifetime.end.p0(i64 8, ptr %16) #12
  call void @llvm.lifetime.end.p0(i64 8, ptr %15) #12
  br label %141

141:                                              ; preds = %131, %6
  %142 = load ptr, ptr %14, align 8
  %143 = load ptr, ptr %11, align 8
  %144 = load i32, ptr %143, align 4
  %145 = load ptr, ptr %13, align 8
  %146 = getelementptr inbounds nuw %struct.wscbor_chunk_t, ptr %145, i32 0, i32 1
  %147 = load i32, ptr %146, align 8
  %148 = sub i32 %144, %147
  call void @proto_item_set_len(ptr noundef %142, i32 noundef %148)
  call void @llvm.lifetime.end.p0(i64 8, ptr %14) #12
  call void @llvm.lifetime.end.p0(i64 8, ptr %13) #12
  ret void
}