; Function Attrs: null_pointer_is_valid sspstrong uwtable
define internal fastcc void @dissect_header_map(ptr noundef %0, ptr noundef %1, ptr noundef %2, ptr noundef %3, ptr noundef %4, ptr noundef %5) unnamed_addr #0 {
  %7 = alloca %struct.except_stacknode, align 8
  %8 = alloca %struct.except_cleanup, align 8
  %9 = alloca i32, align 4
  %10 = getelementptr inbounds nuw i8, ptr %2, i64 408
  %11 = load ptr, ptr %10, align 8
  %12 = tail call ptr @wscbor_chunk_read(ptr noundef %11, ptr noundef %1, ptr noundef %4)
  %13 = tail call zeroext i1 @wscbor_require_map(ptr noundef %12)
  %14 = tail call ptr @proto_tree_get_parent(ptr noundef %3)
  %15 = tail call i64 @wscbor_chunk_mark_errors(ptr noundef %2, ptr noundef %14, ptr noundef %12)
  %16 = load ptr, ptr %10, align 8
  %17 = tail call zeroext i1 @wscbor_skip_if_errors(ptr noundef %16, ptr noundef %1, ptr noundef %4, ptr noundef %12)
  br i1 %17, label %54, label %18

18:                                               ; preds = %6
  %19 = load i32, ptr @ett_hdr_map, align 4
  %20 = tail call ptr @proto_item_add_subtree(ptr noundef %14, i32 noundef %19)
  %21 = load ptr, ptr %10, align 8
  %22 = tail call noalias dereferenceable_or_null(16) ptr @wmem_alloc0(ptr noundef %21, i64 noundef 16) #10
  call void @llvm.lifetime.start.p0(i64 24, ptr nonnull %7) #8
  call void @llvm.lifetime.start.p0(i64 16, ptr nonnull %8) #8
  call void @except_setup_clean(ptr noundef nonnull %7, ptr noundef nonnull %8, ptr noundef nonnull @cose_header_context_cleanup, ptr noundef %22)
  %.not = icmp eq ptr %5, null
  br i1 %.not, label %41, label %23

23:                                               ; preds = %18
  call void @llvm.lifetime.start.p0(i64 4, ptr nonnull %9) #8
  %24 = load i32, ptr %4, align 4
  store i32 %24, ptr %9, align 4
  %25 = getelementptr inbounds nuw i8, ptr %12, i64 48
  %26 = load i64, ptr %25, align 8
  %.not60 = icmp eq i64 %26, 0
  br i1 %.not60, label %._crit_edge, label %.lr.ph

.lr.ph:                                           ; preds = %23, %.critedge
  %.04653 = phi i64 [ %38, %.critedge ], [ 0, %23 ]
  %27 = load ptr, ptr %10, align 8
  %28 = call fastcc ptr @get_header_value(ptr noundef %27, ptr noundef %1, ptr noundef nonnull %9)
  %.not50 = icmp eq ptr %28, null
  br i1 %.not50, label %.critedge, label %29

29:                                               ; preds = %.lr.ph
  %30 = call i32 @g_variant_equal(ptr noundef nonnull %28, ptr noundef nonnull %5)
  %.not51 = icmp eq i32 %30, 0
  br i1 %.not51, label %34, label %31

31:                                               ; preds = %29
  %32 = load ptr, ptr %10, align 8
  %33 = call fastcc ptr @get_header_value(ptr noundef %32, ptr noundef %1, ptr noundef nonnull %9)
  store ptr %33, ptr %22, align 8
  br label %34

34:                                               ; preds = %31, %29
  call void @g_variant_unref(ptr noundef nonnull %28)
  %35 = load ptr, ptr %22, align 8
  %.not52 = icmp eq ptr %35, null
  br i1 %.not52, label %.critedge, label %._crit_edge

.critedge:                                        ; preds = %34, %.lr.ph
  %36 = load ptr, ptr %10, align 8
  %37 = call zeroext i1 @wscbor_skip_next_item(ptr noundef %36, ptr noundef %1, ptr noundef nonnull %9)
  %38 = add nuw i64 %.04653, 1
  %39 = load i64, ptr %25, align 8
  %40 = icmp ult i64 %38, %39
  br i1 %40, label %.lr.ph, label %._crit_edge, !llvm.loop !12

._crit_edge:                                      ; preds = %.critedge, %34, %23
  call void @llvm.lifetime.end.p0(i64 4, ptr nonnull %9) #8
  br label %41

41:                                               ; preds = %._crit_edge, %18
  %42 = getelementptr inbounds nuw i8, ptr %12, i64 48
  %43 = load i64, ptr %42, align 8
  %.not61 = icmp eq i64 %43, 0
  br i1 %.not61, label %._crit_edge58, label %.lr.ph57

44:                                               ; preds = %.lr.ph57
  %45 = add nuw i64 %.055, 1
  %46 = load i64, ptr %42, align 8
  %47 = icmp ult i64 %45, %46
  br i1 %47, label %.lr.ph57, label %._crit_edge58, !llvm.loop !13

.lr.ph57:                                         ; preds = %41, %44
  %.055 = phi i64 [ %45, %44 ], [ 0, %41 ]
  %48 = call fastcc zeroext i1 @dissect_header_pair(ptr noundef %0, ptr noundef %22, ptr noundef %1, ptr noundef %2, ptr noundef %20, ptr noundef %4)
  br i1 %48, label %44, label %._crit_edge58

._crit_edge58:                                    ; preds = %44, %.lr.ph57, %41
  %49 = call ptr @except_pop()
  %50 = load ptr, ptr %8, align 8
  %51 = getelementptr inbounds nuw i8, ptr %8, i64 8
  %52 = load ptr, ptr %51, align 8
  call void %50(ptr noundef %52)
  call void @llvm.lifetime.end.p0(i64 16, ptr nonnull %8) #8
  call void @llvm.lifetime.end.p0(i64 24, ptr nonnull %7) #8
  %53 = load ptr, ptr %10, align 8
  call void @wmem_free(ptr noundef %53, ptr noundef %22)
  br label %54

54:                                               ; preds = %._crit_edge58, %6
  %55 = load i32, ptr %4, align 4
  %56 = getelementptr inbounds nuw i8, ptr %12, i64 8
  %57 = load i32, ptr %56, align 8
  %58 = sub i32 %55, %57
  call void @proto_item_set_len(ptr noundef %14, i32 noundef %58)
  ret void
}